target datalayout = "e-m:e-p270:32:32-p271:32:32-p272:64:64-i64:64-i128:128-f80:128-n8:16:32:64-S128"
target triple = "x86_64-pc-linux-gnu"

@.str = private unnamed_addr constant [5 x i8] c"NULL\00", align 1
@.str.1 = private unnamed_addr constant [10 x i8] c"ziplist.c\00", align 1

; Function Attrs: nounwind uwtable
define dso_local void @zipSaveInteger(ptr noundef %0, i64 noundef %1, i8 noundef zeroext %2) #0 {
  %4 = alloca ptr, align 8
  %5 = alloca i64, align 8
  %6 = alloca i8, align 1
  %7 = alloca i16, align 2
  %8 = alloca i32, align 4
  %9 = alloca i64, align 8
  store ptr %0, ptr %4, align 8, !tbaa !5
  store i64 %1, ptr %5, align 8, !tbaa !10
  store i8 %2, ptr %6, align 1, !tbaa !14
  call void @llvm.lifetime.start.p0(i64 2, ptr %7) #11
  call void @llvm.lifetime.start.p0(i64 4, ptr %8) #11
  call void @llvm.lifetime.start.p0(i64 8, ptr %9) #11
  %10 = load i8, ptr %6, align 1, !tbaa !14
  %11 = zext i8 %10 to i32
  %12 = icmp eq i32 %11, 254
  br i1 %12, label %13, label %18

13:                                               ; preds = %3
  %14 = load i64, ptr %5, align 8, !tbaa !10
  %15 = trunc i64 %14 to i8
  %16 = load ptr, ptr %4, align 8, !tbaa !5
  %17 = getelementptr inbounds i8, ptr %16, i64 0
  store i8 %15, ptr %17, align 1, !tbaa !14
  br label %66

18:                                               ; preds = %3
  %19 = load i8, ptr %6, align 1, !tbaa !14
  %20 = zext i8 %19 to i32
  %21 = icmp eq i32 %20, 192
  br i1 %21, label %22, label %26

22:                                               ; preds = %18
  %23 = load i64, ptr %5, align 8, !tbaa !10
  %24 = trunc i64 %23 to i16
  store i16 %24, ptr %7, align 2, !tbaa !19
  %25 = load ptr, ptr %4, align 8, !tbaa !5
  call void @llvm.memcpy.p0.p0.i64(ptr align 1 %25, ptr align 2 %7, i64 2, i1 false)
  br label %65

26:                                               ; preds = %18
  %27 = load i8, ptr %6, align 1, !tbaa !14
  %28 = zext i8 %27 to i32
  %29 = icmp eq i32 %28, 240
  br i1 %29, label %30, label %36

30:                                               ; preds = %26
  %31 = load i64, ptr %5, align 8, !tbaa !10
  %32 = shl i64 %31, 8
  %33 = trunc i64 %32 to i32
  store i32 %33, ptr %8, align 4, !tbaa !12
  %34 = load ptr, ptr %4, align 8, !tbaa !5
  %35 = getelementptr inbounds i8, ptr %8, i64 1
  call void @llvm.memcpy.p0.p0.i64(ptr align 1 %34, ptr align 1 %35, i64 3, i1 false)
  br label %64

36:                                               ; preds = %26
  %37 = load i8, ptr %6, align 1, !tbaa !14
  %38 = zext i8 %37 to i32
  %39 = icmp eq i32 %38, 208
  br i1 %39, label %40, label %44

40:                                               ; preds = %36
  %41 = load i64, ptr %5, align 8, !tbaa !10
  %42 = trunc i64 %41 to i32
  store i32 %42, ptr %8, align 4, !tbaa !12
  %43 = load ptr, ptr %4, align 8, !tbaa !5
  call void @llvm.memcpy.p0.p0.i64(ptr align 1 %43, ptr align 4 %8, i64 4, i1 false)
  br label %63

44:                                               ; preds = %36
  %45 = load i8, ptr %6, align 1, !tbaa !14
  %46 = zext i8 %45 to i32
  %47 = icmp eq i32 %46, 224
  br i1 %47, label %48, label %51

48:                                               ; preds = %44
  %49 = load i64, ptr %5, align 8, !tbaa !10
  store i64 %49, ptr %9, align 8, !tbaa !10
  %50 = load ptr, ptr %4, align 8, !tbaa !5
  call void @llvm.memcpy.p0.p0.i64(ptr align 1 %50, ptr align 8 %9, i64 8, i1 false)
  br label %62

51:                                               ; preds = %44
  %52 = load i8, ptr %6, align 1, !tbaa !14
  %53 = zext i8 %52 to i32
  %54 = icmp sge i32 %53, 241
  br i1 %54, label %55, label %60

55:                                               ; preds = %51
  %56 = load i8, ptr %6, align 1, !tbaa !14
  %57 = zext i8 %56 to i32
  %58 = icmp sle i32 %57, 253
  br i1 %58, label %59, label %60

59:                                               ; preds = %55
  br label %61

60:                                               ; preds = %55, %51
  call void @_serverAssert(ptr noundef @.str, ptr noundef @.str.1, i32 noundef 573)
  call void @abort() #12
  unreachable

61:                                               ; preds = %59
  br label %62

62:                                               ; preds = %61, %48
  br label %63

63:                                               ; preds = %62, %40
  br label %64

64:                                               ; preds = %63, %30
  br label %65

65:                                               ; preds = %64, %22
  br label %66

66:                                               ; preds = %65, %13
  call void @llvm.lifetime.end.p0(i64 8, ptr %9) #11
  call void @llvm.lifetime.end.p0(i64 4, ptr %8) #11
  call void @llvm.lifetime.end.p0(i64 2, ptr %7) #11
  ret void
}