; Function Attrs: nounwind uwtable
define dso_local void @zipSaveInteger(ptr noundef writeonly captures(none) %0, i64 noundef %1, i8 noundef zeroext %2) local_unnamed_addr #5 {
  switch i8 %2, label %12 [
    i8 -2, label %4
    i8 -64, label %6
    i8 -16, label %8
    i8 -48, label %9
    i8 -32, label %11
  ]

4:                                                ; preds = %3
  %5 = trunc i64 %1 to i8
  store i8 %5, ptr %0, align 1, !tbaa !9
  br label %15

6:                                                ; preds = %3
  %7 = trunc i64 %1 to i16
  store i16 %7, ptr %0, align 1
  br label %15

8:                                                ; preds = %3
  %.1.extract.trunc = trunc i64 %1 to i24
  store i24 %.1.extract.trunc, ptr %0, align 1
  br label %15

9:                                                ; preds = %3
  %10 = trunc i64 %1 to i32
  store i32 %10, ptr %0, align 1
  br label %15

11:                                               ; preds = %3
  store i64 %1, ptr %0, align 1
  br label %15

12:                                               ; preds = %3
  %13 = add i8 %2, 15
  %or.cond = icmp ult i8 %13, 14
  br i1 %or.cond, label %15, label %14

14:                                               ; preds = %12
  tail call void @_serverAssert(ptr noundef nonnull @.str, ptr noundef nonnull @.str.1, i32 noundef 573) #17
  tail call void @abort() #18
  unreachable

15:                                               ; preds = %6, %9, %12, %11, %8, %4
  ret void
}